; Function Attrs: mustprogress uwtable
define hidden noundef i32 @_ZN12fpa_rewriter11mk_is_nzeroEP4exprR7obj_refIS0_11ast_managerE(ptr nocapture noundef nonnull readonly align 8 dereferenceable(73) %this, ptr noundef %arg1, ptr nocapture noundef nonnull align 8 dereferenceable(16) %result) local_unnamed_addr #3 align 2 personality ptr @__gxx_personality_v0 {
entry:
  %v = alloca %class.scoped_mpf, align 8
  %m_fm = getelementptr inbounds i8, ptr %this, i64 64
  %0 = load ptr, ptr %m_fm, align 8
  store ptr %0, ptr %v, align 8
  %m_num.i.i = getelementptr inbounds i8, ptr %v, i64 8
  call void @_ZN3mpfC1Ev(ptr noundef nonnull align 8 dereferenceable(32) %m_num.i.i)
  %m_plugin.i = getelementptr inbounds i8, ptr %this, i64 8
  %1 = load ptr, ptr %m_plugin.i, align 8
  %call.i1 = invoke noundef zeroext i1 @_ZN15fpa_decl_plugin10is_numeralEP4exprR3mpf(ptr noundef nonnull align 8 dereferenceable(1008) %1, ptr noundef %arg1, ptr noundef nonnull align 8 dereferenceable(32) %m_num.i.i)
          to label %invoke.cont2 unwind label %lpad

invoke.cont2:                                     ; preds = %entry
  br i1 %call.i1, label %if.then, label %cleanup

if.then:                                          ; preds = %invoke.cont2
  %2 = load ptr, ptr %m_fm, align 8
  %call8 = invoke noundef zeroext i1 @_ZN11mpf_manager8is_nzeroERK3mpf(ptr noundef nonnull align 8 dereferenceable(840) %2, ptr noundef nonnull align 8 dereferenceable(32) %m_num.i.i)
          to label %invoke.cont7 unwind label %lpad

invoke.cont7:                                     ; preds = %if.then
  %3 = load ptr, ptr %this, align 8
  %cond.in.v = select i1 %call8, i64 856, i64 864
  %cond.in = getelementptr inbounds i8, ptr %3, i64 %cond.in.v
  %cond = load ptr, ptr %cond.in, align 8
  %tobool.not.i = icmp eq ptr %cond, null
  br i1 %tobool.not.i, label %if.end.i, label %_ZN11ast_manager7inc_refEP3ast.exit.i

_ZN11ast_manager7inc_refEP3ast.exit.i:            ; preds = %invoke.cont7
  %m_ref_count.i.i.i = getelementptr inbounds i8, ptr %cond, i64 8
  %4 = load i32, ptr %m_ref_count.i.i.i, align 4
  %inc.i.i.i = add i32 %4, 1
  store i32 %inc.i.i.i, ptr %m_ref_count.i.i.i, align 4
  br label %if.end.i

if.end.i:                                         ; preds = %_ZN11ast_manager7inc_refEP3ast.exit.i, %invoke.cont7
  %5 = load ptr, ptr %result, align 8
  %tobool.not.i3.i = icmp eq ptr %5, null
  br i1 %tobool.not.i3.i, label %_ZN7obj_refI4expr11ast_managerEaSEPS0_.exit, label %if.then.i.i.i

if.then.i.i.i:                                    ; preds = %if.end.i
  %m_manager.i.i = getelementptr inbounds i8, ptr %result, i64 8
  %6 = load ptr, ptr %m_manager.i.i, align 8
  %m_ref_count.i.i.i.i = getelementptr inbounds i8, ptr %5, i64 8
  %7 = load i32, ptr %m_ref_count.i.i.i.i, align 4
  %dec.i.i.i.i = add i32 %7, -1
  store i32 %dec.i.i.i.i, ptr %m_ref_count.i.i.i.i, align 4
  %cmp.i.i.i = icmp eq i32 %dec.i.i.i.i, 0
  br i1 %cmp.i.i.i, label %if.then2.i.i.i, label %_ZN7obj_refI4expr11ast_managerEaSEPS0_.exit

if.then2.i.i.i:                                   ; preds = %if.then.i.i.i
  invoke void @_ZN11ast_manager11delete_nodeEP3ast(ptr noundef nonnull align 8 dereferenceable(976) %6, ptr noundef nonnull %5)
          to label %_ZN7obj_refI4expr11ast_managerEaSEPS0_.exit unwind label %lpad

_ZN7obj_refI4expr11ast_managerEaSEPS0_.exit:      ; preds = %if.then2.i.i.i, %if.end.i, %if.then.i.i.i
  store ptr %cond, ptr %result, align 8
  br label %cleanup

lpad:                                             ; preds = %if.then2.i.i.i, %entry, %if.then
  %8 = landingpad { ptr, i32 }
          cleanup
  call void @_ZN10scoped_mpfD2Ev(ptr noundef nonnull align 8 dereferenceable(40) %v) #13
  resume { ptr, i32 } %8

cleanup:                                          ; preds = %_ZN7obj_refI4expr11ast_managerEaSEPS0_.exit, %invoke.cont2
  %retval.0 = phi i32 [ 4, %_ZN7obj_refI4expr11ast_managerEaSEPS0_.exit ], [ 5, %invoke.cont2 ]
  %9 = load ptr, ptr %v, align 8
  %m_mpz_manager.i.i.i = getelementptr inbounds i8, ptr %9, i64 728
  %10 = load ptr, ptr %m_mpz_manager.i.i.i, align 8
  %significand.i.i.i = getelementptr inbounds i8, ptr %v, i64 16
  invoke void @_ZN11mpz_managerILb0EE3delEPS0_R3mpz(ptr noundef nonnull %10, ptr noundef nonnull align 8 dereferenceable(16) %significand.i.i.i)
          to label %_ZN10scoped_mpfD2Ev.exit unwind label %terminate.lpad.i.i

terminate.lpad.i.i:                               ; preds = %cleanup
  %11 = landingpad { ptr, i32 }
          catch ptr null
  %12 = extractvalue { ptr, i32 } %11, 0
  call void @__clang_call_terminate(ptr %12) #14
  unreachable

_ZN10scoped_mpfD2Ev.exit:                         ; preds = %cleanup
  ret i32 %retval.0
}